; Function Attrs: mustprogress nounwind uwtable
define dso_local noundef zeroext i1 @_ZN2EA6Thread9Condition4InitEPKNS0_19ConditionParametersE(ptr noundef nonnull align 8 dereferenceable(48) %this, ptr noundef readonly %pConditionParameters) local_unnamed_addr #2 align 2 {
entry:
  %cattr = alloca %union.pthread_condattr_t, align 4
  %tobool.not = icmp eq ptr %pConditionParameters, null
  br i1 %tobool.not, label %return, label %if.then

if.then:                                          ; preds = %entry
  %call = call i32 @pthread_condattr_init(ptr noundef nonnull %cattr) #10
  %0 = load i8, ptr %pConditionParameters, align 1
  %1 = and i8 %0, 1
  %2 = xor i8 %1, 1
  %. = zext nneg i8 %2 to i32
  %call5 = call i32 @pthread_condattr_setpshared(ptr noundef nonnull %cattr, i32 noundef %.) #10
  %call6 = call i32 @pthread_cond_init(ptr noundef nonnull %this, ptr noundef nonnull %cattr) #10
  %call7 = call i32 @pthread_condattr_destroy(ptr noundef nonnull %cattr) #10
  %cmp = icmp eq i32 %call6, 0
  br label %return

return:                                           ; preds = %entry, %if.then
  %retval.0 = phi i1 [ %cmp, %if.then ], [ false, %entry ]
  ret i1 %retval.0
}